; Function Attrs: mustprogress nounwind uwtable
define internal fastcc void @_ZN12_GLOBAL__N_112PlistPrinter11EmitMessageERN4llvm11raw_ostreamENS1_9StringRefEj(ptr noundef nonnull align 8 dereferenceable(48) %0, ptr %1, i64 %2) unnamed_addr #0 align 2 {
  %4 = getelementptr inbounds nuw i8, ptr %0, i64 32
  %5 = getelementptr inbounds nuw i8, ptr %0, i64 24
  br label %6

6:                                                ; preds = %_ZN4llvm11raw_ostreamlsEc.exit.i, %3
  %.04.i = phi i32 [ 0, %3 ], [ %13, %_ZN4llvm11raw_ostreamlsEc.exit.i ]
  %7 = load ptr, ptr %4, align 8
  %8 = load ptr, ptr %5, align 8
  %.not.i.i = icmp ult ptr %7, %8
  br i1 %.not.i.i, label %11, label %9

9:                                                ; preds = %6
  %10 = tail call noundef nonnull align 8 dereferenceable(48) ptr @_ZN4llvm11raw_ostream5writeEh(ptr noundef nonnull align 8 dereferenceable(48) %0, i8 noundef zeroext 32) #18
  br label %_ZN4llvm11raw_ostreamlsEc.exit.i

11:                                               ; preds = %6
  %12 = getelementptr inbounds i8, ptr %7, i64 1
  store ptr %12, ptr %4, align 8
  store i8 32, ptr %7, align 1
  br label %_ZN4llvm11raw_ostreamlsEc.exit.i

_ZN4llvm11raw_ostreamlsEc.exit.i:                 ; preds = %11, %9
  %13 = add nuw nsw i32 %.04.i, 1
  %exitcond.not.i = icmp eq i32 %13, 5
  br i1 %exitcond.not.i, label %_ZN5clang6markup6IndentERN4llvm11raw_ostreamEj.exit, label %6, !llvm.loop !17

_ZN5clang6markup6IndentERN4llvm11raw_ostreamEj.exit: ; preds = %_ZN4llvm11raw_ostreamlsEc.exit.i
  %14 = load ptr, ptr %5, align 8
  %15 = load ptr, ptr %4, align 8
  %16 = ptrtoint ptr %14 to i64
  %17 = ptrtoint ptr %15 to i64
  %18 = sub i64 %16, %17
  %19 = icmp ult i64 %18, 28
  br i1 %19, label %20, label %22

20:                                               ; preds = %_ZN5clang6markup6IndentERN4llvm11raw_ostreamEj.exit
  %21 = tail call noundef nonnull align 8 dereferenceable(48) ptr @_ZN4llvm11raw_ostream5writeEPKcm(ptr noundef nonnull align 8 dereferenceable(48) %0, ptr noundef nonnull @.str.59, i64 noundef 28) #18
  br label %_ZN4llvm11raw_ostreamlsEPKc.exit.preheader

22:                                               ; preds = %_ZN5clang6markup6IndentERN4llvm11raw_ostreamEj.exit
  tail call void @llvm.memcpy.p0.p0.i64(ptr noundef nonnull align 1 dereferenceable(28) %15, ptr noundef nonnull align 1 dereferenceable(28) @.str.59, i64 28, i1 false)
  %23 = load ptr, ptr %4, align 8
  %24 = getelementptr inbounds i8, ptr %23, i64 28
  store ptr %24, ptr %4, align 8
  br label %_ZN4llvm11raw_ostreamlsEPKc.exit.preheader

_ZN4llvm11raw_ostreamlsEPKc.exit.preheader:       ; preds = %20, %22
  br label %_ZN4llvm11raw_ostreamlsEPKc.exit

_ZN4llvm11raw_ostreamlsEPKc.exit:                 ; preds = %_ZN4llvm11raw_ostreamlsEPKc.exit.preheader, %_ZN4llvm11raw_ostreamlsEc.exit.i15
  %.04.i13 = phi i32 [ %31, %_ZN4llvm11raw_ostreamlsEc.exit.i15 ], [ 0, %_ZN4llvm11raw_ostreamlsEPKc.exit.preheader ]
  %25 = load ptr, ptr %4, align 8
  %26 = load ptr, ptr %5, align 8
  %.not.i.i14 = icmp ult ptr %25, %26
  br i1 %.not.i.i14, label %29, label %27

27:                                               ; preds = %_ZN4llvm11raw_ostreamlsEPKc.exit
  %28 = tail call noundef nonnull align 8 dereferenceable(48) ptr @_ZN4llvm11raw_ostream5writeEh(ptr noundef nonnull align 8 dereferenceable(48) %0, i8 noundef zeroext 32) #18
  br label %_ZN4llvm11raw_ostreamlsEc.exit.i15

29:                                               ; preds = %_ZN4llvm11raw_ostreamlsEPKc.exit
  %30 = getelementptr inbounds i8, ptr %25, i64 1
  store ptr %30, ptr %4, align 8
  store i8 32, ptr %25, align 1
  br label %_ZN4llvm11raw_ostreamlsEc.exit.i15

_ZN4llvm11raw_ostreamlsEc.exit.i15:               ; preds = %29, %27
  %31 = add nuw nsw i32 %.04.i13, 1
  %exitcond.not.i16 = icmp eq i32 %31, 5
  br i1 %exitcond.not.i16, label %_ZN5clang6markup6IndentERN4llvm11raw_ostreamEj.exit17, label %_ZN4llvm11raw_ostreamlsEPKc.exit, !llvm.loop !17

_ZN5clang6markup6IndentERN4llvm11raw_ostreamEj.exit17: ; preds = %_ZN4llvm11raw_ostreamlsEc.exit.i15
  %32 = tail call noundef nonnull align 8 dereferenceable(48) ptr @_ZN5clang6markup10EmitStringERN4llvm11raw_ostreamENS1_9StringRefE(ptr noundef nonnull align 8 dereferenceable(48) %0, ptr %1, i64 %2)
  %33 = getelementptr inbounds nuw i8, ptr %32, i64 32
  %34 = load ptr, ptr %33, align 8
  %35 = getelementptr inbounds nuw i8, ptr %32, i64 24
  %36 = load ptr, ptr %35, align 8
  %.not.i = icmp ult ptr %34, %36
  br i1 %.not.i, label %39, label %37

37:                                               ; preds = %_ZN5clang6markup6IndentERN4llvm11raw_ostreamEj.exit17
  %38 = tail call noundef nonnull align 8 dereferenceable(48) ptr @_ZN4llvm11raw_ostream5writeEh(ptr noundef nonnull align 8 dereferenceable(48) %32, i8 noundef zeroext 10) #18
  br label %_ZN4llvm11raw_ostreamlsEc.exit.preheader

39:                                               ; preds = %_ZN5clang6markup6IndentERN4llvm11raw_ostreamEj.exit17
  %40 = getelementptr inbounds i8, ptr %34, i64 1
  store ptr %40, ptr %33, align 8
  store i8 10, ptr %34, align 1
  br label %_ZN4llvm11raw_ostreamlsEc.exit.preheader

_ZN4llvm11raw_ostreamlsEc.exit.preheader:         ; preds = %37, %39
  br label %_ZN4llvm11raw_ostreamlsEc.exit

_ZN4llvm11raw_ostreamlsEc.exit:                   ; preds = %_ZN4llvm11raw_ostreamlsEc.exit.preheader, %_ZN4llvm11raw_ostreamlsEc.exit.i20
  %.04.i18 = phi i32 [ %47, %_ZN4llvm11raw_ostreamlsEc.exit.i20 ], [ 0, %_ZN4llvm11raw_ostreamlsEc.exit.preheader ]
  %41 = load ptr, ptr %4, align 8
  %42 = load ptr, ptr %5, align 8
  %.not.i.i19 = icmp ult ptr %41, %42
  br i1 %.not.i.i19, label %45, label %43

43:                                               ; preds = %_ZN4llvm11raw_ostreamlsEc.exit
  %44 = tail call noundef nonnull align 8 dereferenceable(48) ptr @_ZN4llvm11raw_ostream5writeEh(ptr noundef nonnull align 8 dereferenceable(48) %0, i8 noundef zeroext 32) #18
  br label %_ZN4llvm11raw_ostreamlsEc.exit.i20

45:                                               ; preds = %_ZN4llvm11raw_ostreamlsEc.exit
  %46 = getelementptr inbounds i8, ptr %41, i64 1
  store ptr %46, ptr %4, align 8
  store i8 32, ptr %41, align 1
  br label %_ZN4llvm11raw_ostreamlsEc.exit.i20

_ZN4llvm11raw_ostreamlsEc.exit.i20:               ; preds = %45, %43
  %47 = add nuw nsw i32 %.04.i18, 1
  %exitcond.not.i21 = icmp eq i32 %47, 5
  br i1 %exitcond.not.i21, label %_ZN5clang6markup6IndentERN4llvm11raw_ostreamEj.exit22, label %_ZN4llvm11raw_ostreamlsEc.exit, !llvm.loop !17

_ZN5clang6markup6IndentERN4llvm11raw_ostreamEj.exit22: ; preds = %_ZN4llvm11raw_ostreamlsEc.exit.i20
  %48 = load ptr, ptr %5, align 8
  %49 = load ptr, ptr %4, align 8
  %50 = ptrtoint ptr %48 to i64
  %51 = ptrtoint ptr %49 to i64
  %52 = sub i64 %50, %51
  %53 = icmp ult i64 %52, 19
  br i1 %53, label %54, label %56

54:                                               ; preds = %_ZN5clang6markup6IndentERN4llvm11raw_ostreamEj.exit22
  %55 = tail call noundef nonnull align 8 dereferenceable(48) ptr @_ZN4llvm11raw_ostream5writeEPKcm(ptr noundef nonnull align 8 dereferenceable(48) %0, ptr noundef nonnull @.str.60, i64 noundef 19) #18
  br label %_ZN4llvm11raw_ostreamlsEPKc.exit25.preheader

56:                                               ; preds = %_ZN5clang6markup6IndentERN4llvm11raw_ostreamEj.exit22
  tail call void @llvm.memcpy.p0.p0.i64(ptr noundef nonnull align 1 dereferenceable(19) %49, ptr noundef nonnull align 1 dereferenceable(19) @.str.60, i64 19, i1 false)
  %57 = load ptr, ptr %4, align 8
  %58 = getelementptr inbounds i8, ptr %57, i64 19
  store ptr %58, ptr %4, align 8
  br label %_ZN4llvm11raw_ostreamlsEPKc.exit25.preheader

_ZN4llvm11raw_ostreamlsEPKc.exit25.preheader:     ; preds = %54, %56
  br label %_ZN4llvm11raw_ostreamlsEPKc.exit25

_ZN4llvm11raw_ostreamlsEPKc.exit25:               ; preds = %_ZN4llvm11raw_ostreamlsEPKc.exit25.preheader, %_ZN4llvm11raw_ostreamlsEc.exit.i28
  %.04.i26 = phi i32 [ %65, %_ZN4llvm11raw_ostreamlsEc.exit.i28 ], [ 0, %_ZN4llvm11raw_ostreamlsEPKc.exit25.preheader ]
  %59 = load ptr, ptr %4, align 8
  %60 = load ptr, ptr %5, align 8
  %.not.i.i27 = icmp ult ptr %59, %60
  br i1 %.not.i.i27, label %63, label %61

61:                                               ; preds = %_ZN4llvm11raw_ostreamlsEPKc.exit25
  %62 = tail call noundef nonnull align 8 dereferenceable(48) ptr @_ZN4llvm11raw_ostream5writeEh(ptr noundef nonnull align 8 dereferenceable(48) %0, i8 noundef zeroext 32) #18
  br label %_ZN4llvm11raw_ostreamlsEc.exit.i28

63:                                               ; preds = %_ZN4llvm11raw_ostreamlsEPKc.exit25
  %64 = getelementptr inbounds i8, ptr %59, i64 1
  store ptr %64, ptr %4, align 8
  store i8 32, ptr %59, align 1
  br label %_ZN4llvm11raw_ostreamlsEc.exit.i28

_ZN4llvm11raw_ostreamlsEc.exit.i28:               ; preds = %63, %61
  %65 = add nuw nsw i32 %.04.i26, 1
  %exitcond.not.i29 = icmp eq i32 %65, 5
  br i1 %exitcond.not.i29, label %_ZN5clang6markup6IndentERN4llvm11raw_ostreamEj.exit30, label %_ZN4llvm11raw_ostreamlsEPKc.exit25, !llvm.loop !17

_ZN5clang6markup6IndentERN4llvm11raw_ostreamEj.exit30: ; preds = %_ZN4llvm11raw_ostreamlsEc.exit.i28
  %66 = tail call noundef nonnull align 8 dereferenceable(48) ptr @_ZN5clang6markup10EmitStringERN4llvm11raw_ostreamENS1_9StringRefE(ptr noundef nonnull align 8 dereferenceable(48) %0, ptr %1, i64 %2)
  %67 = getelementptr inbounds nuw i8, ptr %66, i64 32
  %68 = load ptr, ptr %67, align 8
  %69 = getelementptr inbounds nuw i8, ptr %66, i64 24
  %70 = load ptr, ptr %69, align 8
  %.not.i31 = icmp ult ptr %68, %70
  br i1 %.not.i31, label %73, label %71

71:                                               ; preds = %_ZN5clang6markup6IndentERN4llvm11raw_ostreamEj.exit30
  %72 = tail call noundef nonnull align 8 dereferenceable(48) ptr @_ZN4llvm11raw_ostream5writeEh(ptr noundef nonnull align 8 dereferenceable(48) %66, i8 noundef zeroext 10) #18
  br label %_ZN4llvm11raw_ostreamlsEc.exit33

73:                                               ; preds = %_ZN5clang6markup6IndentERN4llvm11raw_ostreamEj.exit30
  %74 = getelementptr inbounds i8, ptr %68, i64 1
  store ptr %74, ptr %67, align 8
  store i8 10, ptr %68, align 1
  br label %_ZN4llvm11raw_ostreamlsEc.exit33

_ZN4llvm11raw_ostreamlsEc.exit33:                 ; preds = %71, %73
  ret void
}